; Function Attrs: nounwind uwtable
define internal void @tracemalloc_pyobject_decref(ptr noundef %0) #0 {
  %2 = load i32, ptr %0, align 8, !tbaa !191
  %.not.i = icmp sgt i32 %2, -1
  br i1 %.not.i, label %3, label %Py_DECREF.exit

3:                                                ; preds = %1
  %4 = add nsw i32 %2, -1
  store i32 %4, ptr %0, align 8, !tbaa !191
  %5 = icmp eq i32 %4, 0
  br i1 %5, label %6, label %Py_DECREF.exit

6:                                                ; preds = %3
  tail call void @_Py_Dealloc(ptr noundef nonnull %0) #14
  br label %Py_DECREF.exit

Py_DECREF.exit:                                   ; preds = %1, %3, %6
  ret void
}